target datalayout = "e-m:e-p270:32:32-p271:32:32-p272:64:64-i64:64-i128:128-f80:128-n8:16:32:64-S128"
target triple = "x86_64-pc-linux-gnu"

%"class.boost::system::error_code" = type { %union.anon.6, i64 }
%union.anon.6 = type { %"struct.boost::system::error_code::data" }
%"struct.boost::system::error_code::data" = type { i32, ptr }
%"class.boost::json::storage_ptr" = type { i64 }
%"class.boost::json::basic_parser" = type <{ %"struct.boost::json::detail::handler", %"struct.boost::json::basic_parser<boost::json::detail::handler>::number", %"class.boost::system::error_code", %"class.boost::json::detail::stack", %"class.boost::json::detail::utf8_sequence", i32, i32, i8, i8, i8, [5 x i8], ptr, %"class.boost::json::detail::sbo_buffer", %"struct.boost::json::parse_options", i64, i8, i8, [6 x i8] }>
%"struct.boost::json::detail::handler" = type { %"class.boost::json::value_stack" }
%"class.boost::json::value_stack" = type { %"class.boost::json::value_stack::stack", %"class.boost::json::storage_ptr" }
%"class.boost::json::value_stack::stack" = type <{ %"class.boost::json::storage_ptr", ptr, ptr, ptr, ptr, i64, i8, [7 x i8] }>
%"struct.boost::json::basic_parser<boost::json::detail::handler>::number" = type { i64, i32, i32, i8, i8 }
%"class.boost::json::detail::stack" = type { %"class.boost::json::storage_ptr", i64, i64, ptr, ptr, ptr }
%"class.boost::json::detail::utf8_sequence" = type <{ [4 x i8], i16, i8, i8 }>
%"class.boost::json::detail::sbo_buffer" = type { %union.anon.36, ptr, i64 }
%union.anon.36 = type { i64, [32 x i8] }
%"struct.boost::json::parse_options" = type <{ i64, i8, i8, i8, i8, i8, i8, [2 x i8] }>
%"class.std::error_code" = type { i32, ptr }
%"class.boost::json::stream_parser" = type { %"class.boost::json::basic_parser" }

; Function Attrs: mustprogress nounwind uwtable
define linkonce_odr hidden void @_ZNSt10error_codeC2EiRKNSt3_V214error_categoryE(ptr noundef nonnull align 8 dereferenceable(16) %0, i32 noundef %1, ptr noundef nonnull align 8 dereferenceable(8) %2) unnamed_addr #2 comdat align 2 {
  %4 = alloca ptr, align 8
  %5 = alloca i32, align 4
  %6 = alloca ptr, align 8
  store ptr %0, ptr %4, align 8, !tbaa !3
  store i32 %1, ptr %5, align 4, !tbaa !7
  store ptr %2, ptr %6, align 8, !tbaa !3
  %7 = load ptr, ptr %4, align 8
  %8 = getelementptr inbounds nuw %"class.std::error_code", ptr %7, i32 0, i32 0
  %9 = load i32, ptr %5, align 4, !tbaa !7
  store i32 %9, ptr %8, align 8, !tbaa !309
  %10 = getelementptr inbounds nuw %"class.std::error_code", ptr %7, i32 0, i32 1
  %11 = load ptr, ptr %6, align 8, !tbaa !3
  store ptr %11, ptr %10, align 8, !tbaa !311
  ret void
}

; Function Attrs: mustprogress nounwind uwtable
define linkonce_odr hidden void @_ZNSt10error_codeC2Ev(ptr noundef nonnull align 8 dereferenceable(16) %0) unnamed_addr #2 comdat align 2 {
  %2 = alloca ptr, align 8
  store ptr %0, ptr %2, align 8, !tbaa !3
  %3 = load ptr, ptr %2, align 8
  %4 = getelementptr inbounds nuw %"class.std::error_code", ptr %3, i32 0, i32 0
  store i32 0, ptr %4, align 8, !tbaa !309
  %5 = getelementptr inbounds nuw %"class.std::error_code", ptr %3, i32 0, i32 1
  %6 = call noundef nonnull align 8 dereferenceable(8) ptr @_ZNSt3_V215system_categoryEv() #38
  store ptr %6, ptr %5, align 8, !tbaa !311
  ret void
}

; Function Attrs: mustprogress uwtable
define linkonce_odr hidden { i32, ptr } @_ZNK5boost6system10error_codecvSt10error_codeEv(ptr noundef nonnull align 8 dereferenceable(24) %0) #5 comdat align 2 {
  %2 = alloca %"class.std::error_code", align 8
  %3 = alloca ptr, align 8
  store ptr %0, ptr %3, align 8, !tbaa !3
  %4 = load ptr, ptr %3, align 8
  %5 = getelementptr inbounds nuw %"class.boost::system::error_code", ptr %4, i32 0, i32 1
  %6 = load i64, ptr %5, align 8, !tbaa !53
  %7 = icmp eq i64 %6, 1
  br i1 %7, label %8, label %11

8:                                                ; preds = %1
  %9 = getelementptr inbounds nuw %"class.boost::system::error_code", ptr %4, i32 0, i32 0
  %10 = getelementptr inbounds [16 x i8], ptr %9, i64 0, i64 0
  call void @llvm.memcpy.p0.p0.i64(ptr align 8 %2, ptr align 8 %10, i64 16, i1 false), !tbaa.struct !64
  br label %24

11:                                               ; preds = %1
  %12 = getelementptr inbounds nuw %"class.boost::system::error_code", ptr %4, i32 0, i32 1
  %13 = load i64, ptr %12, align 8, !tbaa !53
  %14 = icmp eq i64 %13, 0
  br i1 %14, label %15, label %16

15:                                               ; preds = %11
  call void @_ZNSt10error_codeC2Ev(ptr noundef nonnull align 8 dereferenceable(16) %2) #10
  br label %24

16:                                               ; preds = %11
  %17 = getelementptr inbounds nuw %"class.boost::system::error_code", ptr %4, i32 0, i32 0
  %18 = getelementptr inbounds nuw %"struct.boost::system::error_code::data", ptr %17, i32 0, i32 0
  %19 = load i32, ptr %18, align 8, !tbaa !56
  %20 = getelementptr inbounds nuw %"class.boost::system::error_code", ptr %4, i32 0, i32 0
  %21 = getelementptr inbounds nuw %"struct.boost::system::error_code::data", ptr %20, i32 0, i32 1
  %22 = load ptr, ptr %21, align 8, !tbaa !56
  %23 = call noundef nonnull align 8 dereferenceable(8) ptr @_ZNK5boost6system14error_categorycvRKNSt3_V214error_categoryEEv(ptr noundef nonnull align 8 dereferenceable(52) %22)
  call void @_ZNSt10error_codeC2EiRKNSt3_V214error_categoryE(ptr noundef nonnull align 8 dereferenceable(16) %2, i32 noundef %19, ptr noundef nonnull align 8 dereferenceable(8) %23) #10
  br label %24

24:                                               ; preds = %16, %15, %8
  %25 = load { i32, ptr }, ptr %2, align 8
  ret { i32, ptr } %25
}

; Function Attrs: mustprogress uwtable
define linkonce_odr hidden { i32, ptr } @_ZN5boost6system10error_codecvSt10error_codeEv(ptr noundef nonnull align 8 dereferenceable(24) %0) #5 comdat align 2 {
  %2 = alloca %"class.std::error_code", align 8
  %3 = alloca ptr, align 8
  store ptr %0, ptr %3, align 8, !tbaa !3
  %4 = load ptr, ptr %3, align 8
  %5 = call { i32, ptr } @_ZNK5boost6system10error_codecvSt10error_codeEv(ptr noundef nonnull align 8 dereferenceable(24) %4)
  %6 = getelementptr inbounds nuw { i32, ptr }, ptr %2, i32 0, i32 0
  %7 = extractvalue { i32, ptr } %5, 0
  store i32 %7, ptr %6, align 8
  %8 = getelementptr inbounds nuw { i32, ptr }, ptr %2, i32 0, i32 1
  %9 = extractvalue { i32, ptr } %5, 1
  store ptr %9, ptr %8, align 8
  %10 = load { i32, ptr }, ptr %2, align 8
  ret { i32, ptr } %10
}

; Function Attrs: mustprogress uwtable
define void @_ZN5boost4json13stream_parser6finishERNS_6system10error_codeE(ptr noundef nonnull align 8 dereferenceable(280) %0, ptr noundef nonnull align 8 dereferenceable(24) %1) #5 align 2 {
  %3 = alloca ptr, align 8
  %4 = alloca ptr, align 8
  store ptr %0, ptr %3, align 8, !tbaa !3
  store ptr %1, ptr %4, align 8, !tbaa !3
  %5 = load ptr, ptr %3, align 8
  %6 = getelementptr inbounds nuw %"class.boost::json::stream_parser", ptr %5, i32 0, i32 0
  %7 = load ptr, ptr %4, align 8, !tbaa !3
  %8 = call noundef i64 @_ZN5boost4json12basic_parserINS0_6detail7handlerEE10write_someEbPKcmRNS_6system10error_codeE(ptr noundef nonnull align 8 dereferenceable(274) %6, i1 noundef zeroext false, ptr noundef null, i64 noundef 0, ptr noundef nonnull align 8 dereferenceable(24) %7)
  ret void
}

; Function Attrs: mustprogress nounwind uwtable
define linkonce_odr hidden void @_ZN5boost6system10error_codeC2Ev(ptr noundef nonnull align 8 dereferenceable(24) %0) unnamed_addr #2 comdat align 2 {
  %2 = alloca ptr, align 8
  store ptr %0, ptr %2, align 8, !tbaa !3
  %3 = load ptr, ptr %2, align 8
  %4 = getelementptr inbounds nuw %"class.boost::system::error_code", ptr %3, i32 0, i32 0
  call void @llvm.memset.p0.i64(ptr align 8 %4, i8 0, i64 16, i1 false)
  %5 = getelementptr inbounds nuw %"class.boost::system::error_code", ptr %3, i32 0, i32 1
  store i64 0, ptr %5, align 8, !tbaa !53
  ret void
}

; Function Attrs: mustprogress uwtable
define void @_ZN5boost4json13stream_parser6finishERSt10error_code(ptr noundef nonnull align 8 dereferenceable(280) %0, ptr noundef nonnull align 8 dereferenceable(16) %1) #5 align 2 {
  %3 = alloca ptr, align 8
  %4 = alloca ptr, align 8
  %5 = alloca %"class.boost::system::error_code", align 8
  %6 = alloca %"class.std::error_code", align 8
  store ptr %0, ptr %3, align 8, !tbaa !3
  store ptr %1, ptr %4, align 8, !tbaa !3
  %7 = load ptr, ptr %3, align 8
  call void @llvm.lifetime.start.p0(i64 24, ptr %5) #10
  call void @_ZN5boost6system10error_codeC2Ev(ptr noundef nonnull align 8 dereferenceable(24) %5) #10
  call void @_ZN5boost4json13stream_parser6finishERNS_6system10error_codeE(ptr noundef nonnull align 8 dereferenceable(280) %7, ptr noundef nonnull align 8 dereferenceable(24) %5)
  call void @llvm.lifetime.start.p0(i64 16, ptr %6) #10
  %8 = call { i32, ptr } @_ZN5boost6system10error_codecvSt10error_codeEv(ptr noundef nonnull align 8 dereferenceable(24) %5)
  %9 = getelementptr inbounds nuw { i32, ptr }, ptr %6, i32 0, i32 0
  %10 = extractvalue { i32, ptr } %8, 0
  store i32 %10, ptr %9, align 8
  %11 = getelementptr inbounds nuw { i32, ptr }, ptr %6, i32 0, i32 1
  %12 = extractvalue { i32, ptr } %8, 1
  store ptr %12, ptr %11, align 8
  %13 = load ptr, ptr %4, align 8, !tbaa !3
  call void @llvm.memcpy.p0.p0.i64(ptr align 8 %13, ptr align 8 %6, i64 16, i1 false), !tbaa.struct !64
  call void @llvm.lifetime.end.p0(i64 16, ptr %6) #10
  call void @llvm.lifetime.end.p0(i64 24, ptr %5) #10
  ret void
}