; Function Attrs: mustprogress uwtable
define void @_ZN5boost4json13stream_parser6finishERSt10error_code(ptr noundef nonnull align 8 dereferenceable(280) %0, ptr nocapture noundef nonnull writeonly align 8 dereferenceable(16) %1) local_unnamed_addr #5 align 2 {
  %3 = alloca %"class.boost::system::error_code", align 8
  call void @llvm.lifetime.start.p0(i64 24, ptr nonnull %3) #48
  call void @llvm.memset.p0.i64(ptr noundef nonnull align 8 dereferenceable(24) %3, i8 0, i64 24, i1 false)
  %4 = call noundef i64 @_ZN5boost4json12basic_parserINS0_6detail7handlerEE10write_someEbPKcmRNS_6system10error_codeE(ptr noundef nonnull align 8 dereferenceable(280) %0, i1 noundef zeroext false, ptr noundef null, i64 noundef 0, ptr noundef nonnull align 8 dereferenceable(24) %3)
  %5 = getelementptr inbounds nuw i8, ptr %3, i64 16
  %6 = load i64, ptr %5, align 8, !tbaa !191
  switch i64 %6, label %10 [
    i64 1, label %7
    i64 0, label %8
  ]

7:                                                ; preds = %2
  %.sroa.0.0.copyload.i.i = load i32, ptr %3, align 8, !tbaa !114
  %.sroa.41.0..sroa_idx.i.i = getelementptr inbounds i8, ptr %3, i64 8
  %.sroa.41.0.copyload.i.i = load ptr, ptr %.sroa.41.0..sroa_idx.i.i, align 8, !tbaa !42
  br label %_ZN5boost6system10error_codecvSt10error_codeEv.exit

8:                                                ; preds = %2
  %9 = tail call noundef nonnull align 8 dereferenceable(8) ptr @_ZNSt3_V215system_categoryEv() #52
  br label %_ZN5boost6system10error_codecvSt10error_codeEv.exit

10:                                               ; preds = %2
  %11 = load i32, ptr %3, align 8, !tbaa !15
  %12 = getelementptr inbounds nuw i8, ptr %3, i64 8
  %13 = load ptr, ptr %12, align 8, !tbaa !15
  %14 = call noundef nonnull align 8 dereferenceable(8) ptr @_ZNK5boost6system14error_categorycvRKNSt3_V214error_categoryEEv(ptr noundef nonnull align 8 dereferenceable(52) %13)
  br label %_ZN5boost6system10error_codecvSt10error_codeEv.exit

_ZN5boost6system10error_codecvSt10error_codeEv.exit: ; preds = %7, %8, %10
  %.sroa.41.0.i.i = phi ptr [ %14, %10 ], [ %9, %8 ], [ %.sroa.41.0.copyload.i.i, %7 ]
  %.sroa.0.0.i.i = phi i32 [ %11, %10 ], [ 0, %8 ], [ %.sroa.0.0.copyload.i.i, %7 ]
  store i32 %.sroa.0.0.i.i, ptr %1, align 8, !tbaa !114
  %.sroa.41.0..sroa_idx = getelementptr inbounds i8, ptr %1, i64 8
  store ptr %.sroa.41.0.i.i, ptr %.sroa.41.0..sroa_idx, align 8, !tbaa !42
  call void @llvm.lifetime.end.p0(i64 24, ptr nonnull %3) #48
  ret void
}